target datalayout = "e-m:e-p270:32:32-p271:32:32-p272:64:64-i64:64-i128:128-f80:128-n8:16:32:64-S128"
target triple = "x86_64-unknown-linux-gnu"

%"class.std::__cxx11::basic_string" = type { %"struct.std::__cxx11::basic_string<char>::_Alloc_hider", i64, %union.anon }
%"struct.std::__cxx11::basic_string<char>::_Alloc_hider" = type { ptr }
%union.anon = type { i64, [8 x i8] }
%"class.std::__shared_count" = type { ptr }
%"class.arrow::Status" = type { ptr }
%"class.std::shared_ptr.34" = type { %"class.std::__shared_ptr.35" }
%"class.std::__shared_ptr.35" = type { ptr, %"class.std::__shared_count" }
%"struct.arrow::TypeHolder" = type { ptr, %"class.std::shared_ptr.34" }
%"class.arrow::compute::detail::KernelExecutor" = type { ptr }
%"class.std::vector.281" = type { %"struct.std::_Vector_base.282" }
%"struct.std::_Vector_base.282" = type { %"struct.std::_Vector_base<arrow::compute::(anonymous namespace)::BufferPreallocation, std::allocator<arrow::compute::(anonymous namespace)::BufferPreallocation>>::_Vector_impl" }
%"struct.std::_Vector_base<arrow::compute::(anonymous namespace)::BufferPreallocation, std::allocator<arrow::compute::(anonymous namespace)::BufferPreallocation>>::_Vector_impl" = type { %"struct.std::_Vector_base<arrow::compute::(anonymous namespace)::BufferPreallocation, std::allocator<arrow::compute::(anonymous namespace)::BufferPreallocation>>::_Vector_impl_data" }
%"struct.std::_Vector_base<arrow::compute::(anonymous namespace)::BufferPreallocation, std::allocator<arrow::compute::(anonymous namespace)::BufferPreallocation>>::_Vector_impl_data" = type { ptr, ptr, ptr }
%"class.arrow::compute::detail::(anonymous namespace)::KernelExecutorImpl.375" = type { %"class.arrow::compute::detail::KernelExecutor", ptr, ptr, %"struct.arrow::TypeHolder", i32, i8, %"class.std::vector.281" }

@.str.42 = private unnamed_addr constant [43 x i8] c"kernel type result mismatch for function '\00", align 1
@.str.43 = private unnamed_addr constant [16 x i8] c"': declared as \00", align 1
@.str.44 = private unnamed_addr constant [13 x i8] c", actual is \00", align 1

; Function Attrs: mustprogress nounwind uwtable
define linkonce_odr noundef ptr @_ZNKSt12__shared_ptrIN5arrow8DataTypeELN9__gnu_cxx12_Lock_policyE2EE3getEv(ptr noundef nonnull align 8 dereferenceable(16) %this) #3 comdat align 2 {
entry:
  %this.addr = alloca ptr, align 8
  store ptr %this, ptr %this.addr, align 8
  %this1 = load ptr, ptr %this.addr, align 8
  %_M_ptr = getelementptr inbounds %"class.std::__shared_ptr.35", ptr %this1, i32 0, i32 0
  %0 = load ptr, ptr %_M_ptr, align 8
  ret ptr %0
}

; Function Attrs: mustprogress nounwind uwtable
define linkonce_odr void @_ZN5arrow6StatusC2Ev(ptr noundef nonnull align 8 dereferenceable(8) %this) unnamed_addr #3 comdat align 2 {
entry:
  %this.addr = alloca ptr, align 8
  store ptr %this, ptr %this.addr, align 8
  %this1 = load ptr, ptr %this.addr, align 8
  %state_ = getelementptr inbounds %"class.arrow::Status", ptr %this1, i32 0, i32 0
  store ptr null, ptr %state_, align 8
  ret void
}

; Function Attrs: mustprogress uwtable
define linkonce_odr void @_ZN5arrow6Status8FromArgsIJRA43_KcRPS2_RA16_S2_NSt7__cxx1112basic_stringIcSt11char_traitsIcESaIcEEERA13_S2_SE_EEES0_NS_10StatusCodeEDpOT_(ptr noalias sret(%"class.arrow::Status") align 8 %agg.result, i8 noundef signext %code, ptr noundef nonnull align 1 dereferenceable(43) %args, ptr noundef nonnull align 8 dereferenceable(8) %args1, ptr noundef nonnull align 1 dereferenceable(16) %args3, ptr noundef nonnull align 8 dereferenceable(32) %args5, ptr noundef nonnull align 1 dereferenceable(13) %args7, ptr noundef nonnull align 8 dereferenceable(32) %args9) #0 comdat align 2 personality ptr @__gxx_personality_v0 {
entry:
  %result.ptr = alloca ptr, align 8
  %code.addr = alloca i8, align 1
  %args.addr = alloca ptr, align 8
  %args.addr2 = alloca ptr, align 8
  %args.addr4 = alloca ptr, align 8
  %args.addr6 = alloca ptr, align 8
  %args.addr8 = alloca ptr, align 8
  %args.addr10 = alloca ptr, align 8
  %ref.tmp = alloca %"class.std::__cxx11::basic_string", align 8
  %exn.slot = alloca ptr, align 8
  %ehselector.slot = alloca i32, align 4
  store ptr %agg.result, ptr %result.ptr, align 8
  store i8 %code, ptr %code.addr, align 1
  store ptr %args, ptr %args.addr, align 8
  store ptr %args1, ptr %args.addr2, align 8
  store ptr %args3, ptr %args.addr4, align 8
  store ptr %args5, ptr %args.addr6, align 8
  store ptr %args7, ptr %args.addr8, align 8
  store ptr %args9, ptr %args.addr10, align 8
  %0 = load i8, ptr %code.addr, align 1
  %1 = load ptr, ptr %args.addr, align 8
  %2 = load ptr, ptr %args.addr2, align 8
  %3 = load ptr, ptr %args.addr4, align 8
  %4 = load ptr, ptr %args.addr6, align 8
  %5 = load ptr, ptr %args.addr8, align 8
  %6 = load ptr, ptr %args.addr10, align 8
  call void @_ZN5arrow4util13StringBuilderIJRA43_KcRPS2_RA16_S2_NSt7__cxx1112basic_stringIcSt11char_traitsIcESaIcEEERA13_S2_SE_EEESE_DpOT_(ptr sret(%"class.std::__cxx11::basic_string") align 8 %ref.tmp, ptr noundef nonnull align 1 dereferenceable(43) %1, ptr noundef nonnull align 8 dereferenceable(8) %2, ptr noundef nonnull align 1 dereferenceable(16) %3, ptr noundef nonnull align 8 dereferenceable(32) %4, ptr noundef nonnull align 1 dereferenceable(13) %5, ptr noundef nonnull align 8 dereferenceable(32) %6)
  invoke void @_ZN5arrow6StatusC1ENS_10StatusCodeERKNSt7__cxx1112basic_stringIcSt11char_traitsIcESaIcEEE(ptr noundef nonnull align 8 dereferenceable(8) %agg.result, i8 noundef signext %0, ptr noundef nonnull align 8 dereferenceable(32) %ref.tmp)
          to label %invoke.cont unwind label %lpad

invoke.cont:                                      ; preds = %entry
  call void @_ZNSt7__cxx1112basic_stringIcSt11char_traitsIcESaIcEED1Ev(ptr noundef nonnull align 8 dereferenceable(32) %ref.tmp) #1
  ret void

lpad:                                             ; preds = %entry
  %7 = landingpad { ptr, i32 }
          cleanup
  %8 = extractvalue { ptr, i32 } %7, 0
  store ptr %8, ptr %exn.slot, align 8
  %9 = extractvalue { ptr, i32 } %7, 1
  store i32 %9, ptr %ehselector.slot, align 4
  call void @_ZNSt7__cxx1112basic_stringIcSt11char_traitsIcESaIcEED1Ev(ptr noundef nonnull align 8 dereferenceable(32) %ref.tmp) #1
  br label %eh.resume

eh.resume:                                        ; preds = %lpad
  %exn = load ptr, ptr %exn.slot, align 8
  %sel = load i32, ptr %ehselector.slot, align 4
  %lpad.val = insertvalue { ptr, i32 } poison, ptr %exn, 0
  %lpad.val11 = insertvalue { ptr, i32 } %lpad.val, i32 %sel, 1
  resume { ptr, i32 } %lpad.val11
}

; Function Attrs: mustprogress nounwind uwtable
define linkonce_odr noundef ptr @_ZNKSt19__shared_ptr_accessIN5arrow8DataTypeELN9__gnu_cxx12_Lock_policyE2ELb0ELb0EE6_M_getEv(ptr noundef nonnull align 1 dereferenceable(1) %this) #3 comdat align 2 {
entry:
  %this.addr = alloca ptr, align 8
  store ptr %this, ptr %this.addr, align 8
  %this1 = load ptr, ptr %this.addr, align 8
  %call = call noundef ptr @_ZNKSt12__shared_ptrIN5arrow8DataTypeELN9__gnu_cxx12_Lock_policyE2EE3getEv(ptr noundef nonnull align 8 dereferenceable(16) %this1) #1
  ret ptr %call
}

; Function Attrs: mustprogress nounwind uwtable
define linkonce_odr noundef zeroext i1 @_ZNKSt12__shared_ptrIN5arrow8DataTypeELN9__gnu_cxx12_Lock_policyE2EEcvbEv(ptr noundef nonnull align 8 dereferenceable(16) %this) #3 comdat align 2 {
entry:
  %this.addr = alloca ptr, align 8
  store ptr %this, ptr %this.addr, align 8
  %this1 = load ptr, ptr %this.addr, align 8
  %_M_ptr = getelementptr inbounds %"class.std::__shared_ptr.35", ptr %this1, i32 0, i32 0
  %0 = load ptr, ptr %_M_ptr, align 8
  %cmp = icmp ne ptr %0, null
  ret i1 %cmp
}

; Function Attrs: mustprogress nounwind uwtable
define linkonce_odr void @_ZN5arrow6Status2OKEv(ptr noalias sret(%"class.arrow::Status") align 8 %agg.result) #3 comdat align 2 {
entry:
  %result.ptr = alloca ptr, align 8
  store ptr %agg.result, ptr %result.ptr, align 8
  call void @_ZN5arrow6StatusC2Ev(ptr noundef nonnull align 8 dereferenceable(8) %agg.result) #1
  ret void
}

; Function Attrs: mustprogress uwtable
define linkonce_odr void @_ZN5arrow6Status9TypeErrorIJRA43_KcRPS2_RA16_S2_NSt7__cxx1112basic_stringIcSt11char_traitsIcESaIcEEERA13_S2_SE_EEES0_DpOT_(ptr noalias sret(%"class.arrow::Status") align 8 %agg.result, ptr noundef nonnull align 1 dereferenceable(43) %args, ptr noundef nonnull align 8 dereferenceable(8) %args1, ptr noundef nonnull align 1 dereferenceable(16) %args3, ptr noundef nonnull align 8 dereferenceable(32) %args5, ptr noundef nonnull align 1 dereferenceable(13) %args7, ptr noundef nonnull align 8 dereferenceable(32) %args9) #0 comdat align 2 {
entry:
  %result.ptr = alloca ptr, align 8
  %args.addr = alloca ptr, align 8
  %args.addr2 = alloca ptr, align 8
  %args.addr4 = alloca ptr, align 8
  %args.addr6 = alloca ptr, align 8
  %args.addr8 = alloca ptr, align 8
  %args.addr10 = alloca ptr, align 8
  store ptr %agg.result, ptr %result.ptr, align 8
  store ptr %args, ptr %args.addr, align 8
  store ptr %args1, ptr %args.addr2, align 8
  store ptr %args3, ptr %args.addr4, align 8
  store ptr %args5, ptr %args.addr6, align 8
  store ptr %args7, ptr %args.addr8, align 8
  store ptr %args9, ptr %args.addr10, align 8
  %0 = load ptr, ptr %args.addr, align 8
  %1 = load ptr, ptr %args.addr2, align 8
  %2 = load ptr, ptr %args.addr4, align 8
  %3 = load ptr, ptr %args.addr6, align 8
  %4 = load ptr, ptr %args.addr8, align 8
  %5 = load ptr, ptr %args.addr10, align 8
  call void @_ZN5arrow6Status8FromArgsIJRA43_KcRPS2_RA16_S2_NSt7__cxx1112basic_stringIcSt11char_traitsIcESaIcEEERA13_S2_SE_EEES0_NS_10StatusCodeEDpOT_(ptr sret(%"class.arrow::Status") align 8 %agg.result, i8 noundef signext 3, ptr noundef nonnull align 1 dereferenceable(43) %0, ptr noundef nonnull align 8 dereferenceable(8) %1, ptr noundef nonnull align 1 dereferenceable(16) %2, ptr noundef nonnull align 8 dereferenceable(32) %3, ptr noundef nonnull align 1 dereferenceable(13) %4, ptr noundef nonnull align 8 dereferenceable(32) %5)
  ret void
}

; Function Attrs: mustprogress nounwind uwtable
define linkonce_odr noundef ptr @_ZNKSt19__shared_ptr_accessIN5arrow8DataTypeELN9__gnu_cxx12_Lock_policyE2ELb0ELb0EEptEv(ptr noundef nonnull align 1 dereferenceable(1) %this) #3 comdat align 2 {
entry:
  %this.addr = alloca ptr, align 8
  store ptr %this, ptr %this.addr, align 8
  %this1 = load ptr, ptr %this.addr, align 8
  %call = call noundef ptr @_ZNKSt19__shared_ptr_accessIN5arrow8DataTypeELN9__gnu_cxx12_Lock_policyE2ELb0ELb0EE6_M_getEv(ptr noundef nonnull align 1 dereferenceable(1) %this1) #1
  ret ptr %call
}

; Function Attrs: mustprogress nounwind uwtable
define linkonce_odr noundef zeroext i1 @_ZStneIN5arrow8DataTypeEEbRKSt10shared_ptrIT_EDn(ptr noundef nonnull align 8 dereferenceable(16) %__a, ptr %0) #3 comdat {
entry:
  %__a.addr = alloca ptr, align 8
  %.addr = alloca ptr, align 8
  store ptr %__a, ptr %__a.addr, align 8
  store ptr %0, ptr %.addr, align 8
  %1 = load ptr, ptr %__a.addr, align 8
  %call = call noundef zeroext i1 @_ZNKSt12__shared_ptrIN5arrow8DataTypeELN9__gnu_cxx12_Lock_policyE2EEcvbEv(ptr noundef nonnull align 8 dereferenceable(16) %1) #1
  ret i1 %call
}

; Function Attrs: mustprogress uwtable
define internal void @_ZN5arrow7compute6detail12_GLOBAL__N_118KernelExecutorImplINS0_21ScalarAggregateKernelEE15CheckResultTypeERKNS_5DatumEPKc(ptr noalias sret(%"class.arrow::Status") align 8 %agg.result, ptr noundef nonnull align 8 dereferenceable(80) %this, ptr noundef nonnull align 8 dereferenceable(24) %out, ptr noundef %function_name) unnamed_addr #0 align 2 personality ptr @__gxx_personality_v0 {
entry:
  %result.ptr = alloca ptr, align 8
  %this.addr = alloca ptr, align 8
  %out.addr = alloca ptr, align 8
  %function_name.addr = alloca ptr, align 8
  %type = alloca ptr, align 8
  %ref.tmp = alloca %"class.std::__cxx11::basic_string", align 8
  %ref.tmp8 = alloca %"class.std::__cxx11::basic_string", align 8
  %exn.slot = alloca ptr, align 8
  %ehselector.slot = alloca i32, align 4
  store ptr %agg.result, ptr %result.ptr, align 8
  store ptr %this, ptr %this.addr, align 8
  store ptr %out, ptr %out.addr, align 8
  store ptr %function_name, ptr %function_name.addr, align 8
  %this1 = load ptr, ptr %this.addr, align 8
  %0 = load ptr, ptr %out.addr, align 8
  %call = call noundef nonnull align 8 dereferenceable(16) ptr @_ZNK5arrow5Datum4typeEv(ptr noundef nonnull align 8 dereferenceable(24) %0)
  store ptr %call, ptr %type, align 8
  %1 = load ptr, ptr %type, align 8
  %call2 = call noundef zeroext i1 @_ZStneIN5arrow8DataTypeEEbRKSt10shared_ptrIT_EDn(ptr noundef nonnull align 8 dereferenceable(16) %1, ptr null) #1
  br i1 %call2, label %land.lhs.true, label %if.end

land.lhs.true:                                    ; preds = %entry
  %2 = load ptr, ptr %type, align 8
  %call3 = call noundef ptr @_ZNKSt19__shared_ptr_accessIN5arrow8DataTypeELN9__gnu_cxx12_Lock_policyE2ELb0ELb0EEptEv(ptr noundef nonnull align 1 dereferenceable(1) %2) #1
  %output_type_ = getelementptr inbounds %"class.arrow::compute::detail::(anonymous namespace)::KernelExecutorImpl.375", ptr %this1, i32 0, i32 3
  %type4 = getelementptr inbounds %"struct.arrow::TypeHolder", ptr %output_type_, i32 0, i32 0
  %3 = load ptr, ptr %type4, align 8
  %call5 = call noundef zeroext i1 @_ZNK5arrow8DataType6EqualsERKS0_b(ptr noundef nonnull align 8 dereferenceable(72) %call3, ptr noundef nonnull align 8 dereferenceable(72) %3, i1 noundef zeroext false)
  br i1 %call5, label %if.end, label %if.then

if.then:                                          ; preds = %land.lhs.true
  %output_type_6 = getelementptr inbounds %"class.arrow::compute::detail::(anonymous namespace)::KernelExecutorImpl.375", ptr %this1, i32 0, i32 3
  %type7 = getelementptr inbounds %"struct.arrow::TypeHolder", ptr %output_type_6, i32 0, i32 0
  %4 = load ptr, ptr %type7, align 8
  %vtable = load ptr, ptr %4, align 8
  %vfn = getelementptr inbounds ptr, ptr %vtable, i64 4
  %5 = load ptr, ptr %vfn, align 8
  call void %5(ptr sret(%"class.std::__cxx11::basic_string") align 8 %ref.tmp, ptr noundef nonnull align 8 dereferenceable(72) %4)
  %6 = load ptr, ptr %type, align 8
  %call9 = call noundef ptr @_ZNKSt19__shared_ptr_accessIN5arrow8DataTypeELN9__gnu_cxx12_Lock_policyE2ELb0ELb0EEptEv(ptr noundef nonnull align 1 dereferenceable(1) %6) #1
  %vtable10 = load ptr, ptr %call9, align 8
  %vfn11 = getelementptr inbounds ptr, ptr %vtable10, i64 4
  %7 = load ptr, ptr %vfn11, align 8
  invoke void %7(ptr sret(%"class.std::__cxx11::basic_string") align 8 %ref.tmp8, ptr noundef nonnull align 8 dereferenceable(72) %call9)
          to label %invoke.cont unwind label %lpad

invoke.cont:                                      ; preds = %if.then
  invoke void @_ZN5arrow6Status9TypeErrorIJRA43_KcRPS2_RA16_S2_NSt7__cxx1112basic_stringIcSt11char_traitsIcESaIcEEERA13_S2_SE_EEES0_DpOT_(ptr sret(%"class.arrow::Status") align 8 %agg.result, ptr noundef nonnull align 1 dereferenceable(43) @.str.42, ptr noundef nonnull align 8 dereferenceable(8) %function_name.addr, ptr noundef nonnull align 1 dereferenceable(16) @.str.43, ptr noundef nonnull align 8 dereferenceable(32) %ref.tmp, ptr noundef nonnull align 1 dereferenceable(13) @.str.44, ptr noundef nonnull align 8 dereferenceable(32) %ref.tmp8)
          to label %invoke.cont13 unwind label %lpad12

invoke.cont13:                                    ; preds = %invoke.cont
  call void @_ZNSt7__cxx1112basic_stringIcSt11char_traitsIcESaIcEED1Ev(ptr noundef nonnull align 8 dereferenceable(32) %ref.tmp8) #1
  call void @_ZNSt7__cxx1112basic_stringIcSt11char_traitsIcESaIcEED1Ev(ptr noundef nonnull align 8 dereferenceable(32) %ref.tmp) #1
  br label %return

lpad:                                             ; preds = %if.then
  %8 = landingpad { ptr, i32 }
          cleanup
  %9 = extractvalue { ptr, i32 } %8, 0
  store ptr %9, ptr %exn.slot, align 8
  %10 = extractvalue { ptr, i32 } %8, 1
  store i32 %10, ptr %ehselector.slot, align 4
  br label %ehcleanup

lpad12:                                           ; preds = %invoke.cont
  %11 = landingpad { ptr, i32 }
          cleanup
  %12 = extractvalue { ptr, i32 } %11, 0
  store ptr %12, ptr %exn.slot, align 8
  %13 = extractvalue { ptr, i32 } %11, 1
  store i32 %13, ptr %ehselector.slot, align 4
  call void @_ZNSt7__cxx1112basic_stringIcSt11char_traitsIcESaIcEED1Ev(ptr noundef nonnull align 8 dereferenceable(32) %ref.tmp8) #1
  br label %ehcleanup

ehcleanup:                                        ; preds = %lpad12, %lpad
  call void @_ZNSt7__cxx1112basic_stringIcSt11char_traitsIcESaIcEED1Ev(ptr noundef nonnull align 8 dereferenceable(32) %ref.tmp) #1
  br label %eh.resume

if.end:                                           ; preds = %land.lhs.true, %entry
  call void @_ZN5arrow6Status2OKEv(ptr sret(%"class.arrow::Status") align 8 %agg.result)
  br label %return

return:                                           ; preds = %if.end, %invoke.cont13
  ret void

eh.resume:                                        ; preds = %ehcleanup
  %exn = load ptr, ptr %exn.slot, align 8
  %sel = load i32, ptr %ehselector.slot, align 4
  %lpad.val = insertvalue { ptr, i32 } poison, ptr %exn, 0
  %lpad.val14 = insertvalue { ptr, i32 } %lpad.val, i32 %sel, 1
  resume { ptr, i32 } %lpad.val14
}