; Function Attrs: mustprogress uwtable
define internal void @_ZN5arrow7compute6detail12_GLOBAL__N_118KernelExecutorImplINS0_21ScalarAggregateKernelEE15CheckResultTypeERKNS_5DatumEPKc(ptr noalias sret(%"class.arrow::Status") align 8 %agg.result, ptr nocapture noundef nonnull readonly align 8 dereferenceable(80) %this, ptr noundef nonnull align 8 dereferenceable(24) %out, ptr noundef %function_name) unnamed_addr #0 align 2 personality ptr @__gxx_personality_v0 {
entry:
  %ref.tmp.i.i = alloca %"class.std::__cxx11::basic_string", align 8
  %function_name.addr = alloca ptr, align 8
  %ref.tmp = alloca %"class.std::__cxx11::basic_string", align 8
  %ref.tmp8 = alloca %"class.std::__cxx11::basic_string", align 8
  store ptr %function_name, ptr %function_name.addr, align 8
  %call = tail call noundef nonnull align 8 dereferenceable(16) ptr @_ZNK5arrow5Datum4typeEv(ptr noundef nonnull align 8 dereferenceable(24) %out)
  %0 = load ptr, ptr %call, align 8
  %cmp.i.i.not = icmp eq ptr %0, null
  br i1 %cmp.i.i.not, label %if.end, label %land.lhs.true

land.lhs.true:                                    ; preds = %entry
  %output_type_ = getelementptr inbounds i8, ptr %this, i64 24
  %1 = load ptr, ptr %output_type_, align 8
  %call5 = tail call noundef zeroext i1 @_ZNK5arrow8DataType6EqualsERKS0_b(ptr noundef nonnull align 8 dereferenceable(72) %0, ptr noundef nonnull align 8 dereferenceable(72) %1, i1 noundef zeroext false)
  br i1 %call5, label %if.end, label %if.then

if.then:                                          ; preds = %land.lhs.true
  %2 = load ptr, ptr %output_type_, align 8
  %vtable = load ptr, ptr %2, align 8
  %vfn = getelementptr inbounds i8, ptr %vtable, i64 32
  %3 = load ptr, ptr %vfn, align 8
  call void %3(ptr nonnull sret(%"class.std::__cxx11::basic_string") align 8 %ref.tmp, ptr noundef nonnull align 8 dereferenceable(72) %2)
  %4 = load ptr, ptr %call, align 8
  %vtable10 = load ptr, ptr %4, align 8
  %vfn11 = getelementptr inbounds i8, ptr %vtable10, i64 32
  %5 = load ptr, ptr %vfn11, align 8
  invoke void %5(ptr nonnull sret(%"class.std::__cxx11::basic_string") align 8 %ref.tmp8, ptr noundef nonnull align 8 dereferenceable(72) %4)
          to label %invoke.cont unwind label %lpad

invoke.cont:                                      ; preds = %if.then
  call void @llvm.lifetime.start.p0(i64 32, ptr nonnull %ref.tmp.i.i), !noalias !568
  invoke void @_ZN5arrow4util13StringBuilderIJRA43_KcRPS2_RA16_S2_NSt7__cxx1112basic_stringIcSt11char_traitsIcESaIcEEERA13_S2_SE_EEESE_DpOT_(ptr nonnull sret(%"class.std::__cxx11::basic_string") align 8 %ref.tmp.i.i, ptr noundef nonnull align 1 dereferenceable(43) @.str.42, ptr noundef nonnull align 8 dereferenceable(8) %function_name.addr, ptr noundef nonnull align 1 dereferenceable(16) @.str.43, ptr noundef nonnull align 8 dereferenceable(32) %ref.tmp, ptr noundef nonnull align 1 dereferenceable(13) @.str.44, ptr noundef nonnull align 8 dereferenceable(32) %ref.tmp8)
          to label %.noexc unwind label %lpad12

.noexc:                                           ; preds = %invoke.cont
  invoke void @_ZN5arrow6StatusC1ENS_10StatusCodeERKNSt7__cxx1112basic_stringIcSt11char_traitsIcESaIcEEE(ptr noundef nonnull align 8 dereferenceable(8) %agg.result, i8 noundef signext 3, ptr noundef nonnull align 8 dereferenceable(32) %ref.tmp.i.i)
          to label %invoke.cont13 unwind label %lpad.i.i

lpad.i.i:                                         ; preds = %.noexc
  %6 = landingpad { ptr, i32 }
          cleanup
  call void @_ZNSt7__cxx1112basic_stringIcSt11char_traitsIcESaIcEED1Ev(ptr noundef nonnull align 8 dereferenceable(32) %ref.tmp.i.i) #22
  br label %lpad12.body

invoke.cont13:                                    ; preds = %.noexc
  call void @_ZNSt7__cxx1112basic_stringIcSt11char_traitsIcESaIcEED1Ev(ptr noundef nonnull align 8 dereferenceable(32) %ref.tmp.i.i) #22
  call void @llvm.lifetime.end.p0(i64 32, ptr nonnull %ref.tmp.i.i), !noalias !568
  call void @_ZNSt7__cxx1112basic_stringIcSt11char_traitsIcESaIcEED1Ev(ptr noundef nonnull align 8 dereferenceable(32) %ref.tmp8) #22
  call void @_ZNSt7__cxx1112basic_stringIcSt11char_traitsIcESaIcEED1Ev(ptr noundef nonnull align 8 dereferenceable(32) %ref.tmp) #22
  br label %return

lpad:                                             ; preds = %if.then
  %7 = landingpad { ptr, i32 }
          cleanup
  br label %ehcleanup

lpad12:                                           ; preds = %invoke.cont
  %8 = landingpad { ptr, i32 }
          cleanup
  br label %lpad12.body

lpad12.body:                                      ; preds = %lpad.i.i, %lpad12
  %eh.lpad-body = phi { ptr, i32 } [ %8, %lpad12 ], [ %6, %lpad.i.i ]
  call void @_ZNSt7__cxx1112basic_stringIcSt11char_traitsIcESaIcEED1Ev(ptr noundef nonnull align 8 dereferenceable(32) %ref.tmp8) #22
  br label %ehcleanup

ehcleanup:                                        ; preds = %lpad12.body, %lpad
  %.pn = phi { ptr, i32 } [ %eh.lpad-body, %lpad12.body ], [ %7, %lpad ]
  call void @_ZNSt7__cxx1112basic_stringIcSt11char_traitsIcESaIcEED1Ev(ptr noundef nonnull align 8 dereferenceable(32) %ref.tmp) #22
  resume { ptr, i32 } %.pn

if.end:                                           ; preds = %land.lhs.true, %entry
  store ptr null, ptr %agg.result, align 8, !alias.scope !571
  br label %return

return:                                           ; preds = %if.end, %invoke.cont13
  ret void
}